target datalayout = "e-m:e-p270:32:32-p271:32:32-p272:64:64-i64:64-i128:128-f80:128-n8:16:32:64-S128"
target triple = "x86_64-pc-linux-gnu"

%struct.PJconsts = type { ptr, ptr, ptr, ptr, ptr, ptr, ptr, ptr, ptr, ptr, ptr, ptr, i32, ptr, ptr, ptr, ptr, ptr, ptr, ptr, ptr, double, double, double, double, double, double, double, double, double, double, double, double, double, double, double, double, double, double, double, double, double, double, i32, i32, i32, i32, i32, i32, i32, i32, i32, i32, i32, ptr, ptr, ptr, ptr, ptr, ptr, double, double, double, double, double, double, double, double, double, double, double, i32, [7 x double], i32, ptr, ptr, double, double, i32, [4 x i8], %"class.std::shared_ptr", i8, double, i8, %"class.std::__cxx11::basic_string", %"class.std::__cxx11::basic_string", %"class.std::__cxx11::basic_string", i8, %"class.std::vector", i32, %"class.std::vector.3", i32, i8, i8, i8, ptr }
%"class.std::shared_ptr" = type { %"class.std::__shared_ptr" }
%"class.std::__shared_ptr" = type { ptr, %"class.std::__shared_count" }
%"class.std::__shared_count" = type { ptr }
%"class.std::__cxx11::basic_string" = type { %"struct.std::__cxx11::basic_string<char>::_Alloc_hider", i64, %union.anon }
%"struct.std::__cxx11::basic_string<char>::_Alloc_hider" = type { ptr }
%union.anon = type { i64, [8 x i8] }
%"class.std::vector" = type { %"struct.std::_Vector_base" }
%"struct.std::_Vector_base" = type { %"struct.std::_Vector_base<osgeo::proj::operation::GridDescription, std::allocator<osgeo::proj::operation::GridDescription>>::_Vector_impl" }
%"struct.std::_Vector_base<osgeo::proj::operation::GridDescription, std::allocator<osgeo::proj::operation::GridDescription>>::_Vector_impl" = type { %"struct.std::_Vector_base<osgeo::proj::operation::GridDescription, std::allocator<osgeo::proj::operation::GridDescription>>::_Vector_impl_data" }
%"struct.std::_Vector_base<osgeo::proj::operation::GridDescription, std::allocator<osgeo::proj::operation::GridDescription>>::_Vector_impl_data" = type { ptr, ptr, ptr }
%"class.std::vector.3" = type { %"struct.std::_Vector_base.4" }
%"struct.std::_Vector_base.4" = type { %"struct.std::_Vector_base<PJCoordOperation, std::allocator<PJCoordOperation>>::_Vector_impl" }
%"struct.std::_Vector_base<PJCoordOperation, std::allocator<PJCoordOperation>>::_Vector_impl" = type { %"struct.std::_Vector_base<PJCoordOperation, std::allocator<PJCoordOperation>>::_Vector_impl_data" }
%"struct.std::_Vector_base<PJCoordOperation, std::allocator<PJCoordOperation>>::_Vector_impl_data" = type { ptr, ptr, ptr }
%"struct.(anonymous namespace)::pj_aeqd_data" = type { double, double, ptr, double, double, double, double, double, i32, %struct.geod_geodesic }
%struct.geod_geodesic = type { double, double, double, double, double, double, double, double, double, [6 x double], [15 x double], [21 x double] }
%struct.PJ_LP = type { double, double }
%struct.PJ_XY = type { double, double }

; Function Attrs: mustprogress uwtable
define internal { double, double } @_ZL14aeqd_s_inverse5PJ_XYP8PJconsts(double %0, double %1, ptr noundef %2) #0 {
  %4 = alloca %struct.PJ_LP, align 8
  %5 = alloca %struct.PJ_XY, align 8
  %6 = alloca ptr, align 8
  %7 = alloca ptr, align 8
  %8 = alloca double, align 8
  %9 = alloca double, align 8
  %10 = alloca double, align 8
  %11 = alloca i32, align 4
  %12 = getelementptr inbounds nuw { double, double }, ptr %5, i32 0, i32 0
  store double %0, ptr %12, align 8
  %13 = getelementptr inbounds nuw { double, double }, ptr %5, i32 0, i32 1
  store double %1, ptr %13, align 8
  store ptr %2, ptr %6, align 8, !tbaa !3
  call void @llvm.memset.p0.i64(ptr align 8 %4, i8 0, i64 16, i1 false)
  call void @llvm.lifetime.start.p0(i64 8, ptr %7) #8
  %14 = load ptr, ptr %6, align 8, !tbaa !3
  %15 = getelementptr inbounds nuw %struct.PJconsts, ptr %14, i32 0, i32 11
  %16 = load ptr, ptr %15, align 8, !tbaa !43
  store ptr %16, ptr %7, align 8, !tbaa !41
  call void @llvm.lifetime.start.p0(i64 8, ptr %8) #8
  call void @llvm.lifetime.start.p0(i64 8, ptr %9) #8
  call void @llvm.lifetime.start.p0(i64 8, ptr %10) #8
  %17 = getelementptr inbounds nuw %struct.PJ_XY, ptr %5, i32 0, i32 0
  %18 = load double, ptr %17, align 8, !tbaa !70
  %19 = getelementptr inbounds nuw %struct.PJ_XY, ptr %5, i32 0, i32 1
  %20 = load double, ptr %19, align 8, !tbaa !72
  %21 = call double @hypot(double noundef %18, double noundef %20) #8, !tbaa !54
  store double %21, ptr %9, align 8, !tbaa !73
  %22 = load double, ptr %9, align 8, !tbaa !73
  %23 = fcmp ogt double %22, 0x400921FB54442D18
  br i1 %23, label %24, label %32

24:                                               ; preds = %3
  %25 = load double, ptr %9, align 8, !tbaa !73
  %26 = fsub double %25, 1.000000e-10
  %27 = fcmp ogt double %26, 0x400921FB54442D18
  br i1 %27, label %28, label %31

28:                                               ; preds = %24
  %29 = load ptr, ptr %6, align 8, !tbaa !3
  %30 = call i32 @proj_errno_set(ptr noundef %29, i32 noundef 2050)
  store i32 1, ptr %11, align 4
  br label %164

31:                                               ; preds = %24
  store double 0x400921FB54442D18, ptr %9, align 8, !tbaa !73
  br label %42

32:                                               ; preds = %3
  %33 = load double, ptr %9, align 8, !tbaa !73
  %34 = fcmp olt double %33, 1.000000e-10
  br i1 %34, label %35, label %41

35:                                               ; preds = %32
  %36 = load ptr, ptr %6, align 8, !tbaa !3
  %37 = getelementptr inbounds nuw %struct.PJconsts, ptr %36, i32 0, i32 61
  %38 = load double, ptr %37, align 8, !tbaa !46
  %39 = getelementptr inbounds nuw %struct.PJ_LP, ptr %4, i32 0, i32 1
  store double %38, ptr %39, align 8, !tbaa !74
  %40 = getelementptr inbounds nuw %struct.PJ_LP, ptr %4, i32 0, i32 0
  store double 0.000000e+00, ptr %40, align 8, !tbaa !76
  store i32 1, ptr %11, align 4
  br label %164

41:                                               ; preds = %32
  br label %42

42:                                               ; preds = %41, %31
  %43 = load ptr, ptr %7, align 8, !tbaa !41
  %44 = getelementptr inbounds nuw %"struct.(anonymous namespace)::pj_aeqd_data", ptr %43, i32 0, i32 8
  %45 = load i32, ptr %44, align 8, !tbaa !47
  %46 = icmp eq i32 %45, 3
  br i1 %46, label %52, label %47

47:                                               ; preds = %42
  %48 = load ptr, ptr %7, align 8, !tbaa !41
  %49 = getelementptr inbounds nuw %"struct.(anonymous namespace)::pj_aeqd_data", ptr %48, i32 0, i32 8
  %50 = load i32, ptr %49, align 8, !tbaa !47
  %51 = icmp eq i32 %50, 2
  br i1 %51, label %52, label %136

52:                                               ; preds = %47, %42
  %53 = load double, ptr %9, align 8, !tbaa !73
  %54 = call double @sin(double noundef %53) #8, !tbaa !54
  store double %54, ptr %10, align 8, !tbaa !73
  %55 = load double, ptr %9, align 8, !tbaa !73
  %56 = call double @cos(double noundef %55) #8, !tbaa !54
  store double %56, ptr %8, align 8, !tbaa !73
  %57 = load ptr, ptr %7, align 8, !tbaa !41
  %58 = getelementptr inbounds nuw %"struct.(anonymous namespace)::pj_aeqd_data", ptr %57, i32 0, i32 8
  %59 = load i32, ptr %58, align 8, !tbaa !47
  %60 = icmp eq i32 %59, 2
  br i1 %60, label %61, label %81

61:                                               ; preds = %52
  %62 = load ptr, ptr %6, align 8, !tbaa !3
  %63 = getelementptr inbounds nuw %struct.PJconsts, ptr %62, i32 0, i32 0
  %64 = load ptr, ptr %63, align 8, !tbaa !60
  %65 = getelementptr inbounds nuw %struct.PJ_XY, ptr %5, i32 0, i32 1
  %66 = load double, ptr %65, align 8, !tbaa !72
  %67 = load double, ptr %10, align 8, !tbaa !73
  %68 = fmul double %66, %67
  %69 = load double, ptr %9, align 8, !tbaa !73
  %70 = fdiv double %68, %69
  %71 = call noundef double @_Z5aasinP6pj_ctxd(ptr noundef %64, double noundef %70)
  %72 = getelementptr inbounds nuw %struct.PJ_LP, ptr %4, i32 0, i32 1
  store double %71, ptr %72, align 8, !tbaa !74
  %73 = load double, ptr %10, align 8, !tbaa !73
  %74 = getelementptr inbounds nuw %struct.PJ_XY, ptr %5, i32 0, i32 0
  %75 = load double, ptr %74, align 8, !tbaa !70
  %76 = fmul double %75, %73
  store double %76, ptr %74, align 8, !tbaa !70
  %77 = load double, ptr %8, align 8, !tbaa !73
  %78 = load double, ptr %9, align 8, !tbaa !73
  %79 = fmul double %77, %78
  %80 = getelementptr inbounds nuw %struct.PJ_XY, ptr %5, i32 0, i32 1
  store double %79, ptr %80, align 8, !tbaa !72
  br label %122

81:                                               ; preds = %52
  %82 = load ptr, ptr %6, align 8, !tbaa !3
  %83 = getelementptr inbounds nuw %struct.PJconsts, ptr %82, i32 0, i32 0
  %84 = load ptr, ptr %83, align 8, !tbaa !60
  %85 = load double, ptr %8, align 8, !tbaa !73
  %86 = load ptr, ptr %7, align 8, !tbaa !41
  %87 = getelementptr inbounds nuw %"struct.(anonymous namespace)::pj_aeqd_data", ptr %86, i32 0, i32 0
  %88 = load double, ptr %87, align 8, !tbaa !52
  %89 = getelementptr inbounds nuw %struct.PJ_XY, ptr %5, i32 0, i32 1
  %90 = load double, ptr %89, align 8, !tbaa !72
  %91 = load double, ptr %10, align 8, !tbaa !73
  %92 = fmul double %90, %91
  %93 = load ptr, ptr %7, align 8, !tbaa !41
  %94 = getelementptr inbounds nuw %"struct.(anonymous namespace)::pj_aeqd_data", ptr %93, i32 0, i32 1
  %95 = load double, ptr %94, align 8, !tbaa !53
  %96 = fmul double %92, %95
  %97 = load double, ptr %9, align 8, !tbaa !73
  %98 = fdiv double %96, %97
  %99 = call double @llvm.fmuladd.f64(double %85, double %88, double %98)
  %100 = call noundef double @_Z5aasinP6pj_ctxd(ptr noundef %84, double noundef %99)
  %101 = getelementptr inbounds nuw %struct.PJ_LP, ptr %4, i32 0, i32 1
  store double %100, ptr %101, align 8, !tbaa !74
  %102 = load double, ptr %8, align 8, !tbaa !73
  %103 = load ptr, ptr %7, align 8, !tbaa !41
  %104 = getelementptr inbounds nuw %"struct.(anonymous namespace)::pj_aeqd_data", ptr %103, i32 0, i32 0
  %105 = load double, ptr %104, align 8, !tbaa !52
  %106 = getelementptr inbounds nuw %struct.PJ_LP, ptr %4, i32 0, i32 1
  %107 = load double, ptr %106, align 8, !tbaa !74
  %108 = call double @sin(double noundef %107) #8, !tbaa !54
  %109 = fneg double %105
  %110 = call double @llvm.fmuladd.f64(double %109, double %108, double %102)
  %111 = load double, ptr %9, align 8, !tbaa !73
  %112 = fmul double %110, %111
  %113 = getelementptr inbounds nuw %struct.PJ_XY, ptr %5, i32 0, i32 1
  store double %112, ptr %113, align 8, !tbaa !72
  %114 = load double, ptr %10, align 8, !tbaa !73
  %115 = load ptr, ptr %7, align 8, !tbaa !41
  %116 = getelementptr inbounds nuw %"struct.(anonymous namespace)::pj_aeqd_data", ptr %115, i32 0, i32 1
  %117 = load double, ptr %116, align 8, !tbaa !53
  %118 = fmul double %114, %117
  %119 = getelementptr inbounds nuw %struct.PJ_XY, ptr %5, i32 0, i32 0
  %120 = load double, ptr %119, align 8, !tbaa !70
  %121 = fmul double %120, %118
  store double %121, ptr %119, align 8, !tbaa !70
  br label %122

122:                                              ; preds = %81, %61
  %123 = getelementptr inbounds nuw %struct.PJ_XY, ptr %5, i32 0, i32 1
  %124 = load double, ptr %123, align 8, !tbaa !72
  %125 = fcmp oeq double %124, 0.000000e+00
  br i1 %125, label %126, label %127

126:                                              ; preds = %122
  br label %133

127:                                              ; preds = %122
  %128 = getelementptr inbounds nuw %struct.PJ_XY, ptr %5, i32 0, i32 0
  %129 = load double, ptr %128, align 8, !tbaa !70
  %130 = getelementptr inbounds nuw %struct.PJ_XY, ptr %5, i32 0, i32 1
  %131 = load double, ptr %130, align 8, !tbaa !72
  %132 = call double @atan2(double noundef %129, double noundef %131) #8, !tbaa !54
  br label %133

133:                                              ; preds = %127, %126
  %134 = phi double [ 0.000000e+00, %126 ], [ %132, %127 ]
  %135 = getelementptr inbounds nuw %struct.PJ_LP, ptr %4, i32 0, i32 0
  store double %134, ptr %135, align 8, !tbaa !76
  br label %163

136:                                              ; preds = %47
  %137 = load ptr, ptr %7, align 8, !tbaa !41
  %138 = getelementptr inbounds nuw %"struct.(anonymous namespace)::pj_aeqd_data", ptr %137, i32 0, i32 8
  %139 = load i32, ptr %138, align 8, !tbaa !47
  %140 = icmp eq i32 %139, 0
  br i1 %140, label %141, label %152

141:                                              ; preds = %136
  %142 = load double, ptr %9, align 8, !tbaa !73
  %143 = fsub double 0x3FF921FB54442D18, %142
  %144 = getelementptr inbounds nuw %struct.PJ_LP, ptr %4, i32 0, i32 1
  store double %143, ptr %144, align 8, !tbaa !74
  %145 = getelementptr inbounds nuw %struct.PJ_XY, ptr %5, i32 0, i32 0
  %146 = load double, ptr %145, align 8, !tbaa !70
  %147 = getelementptr inbounds nuw %struct.PJ_XY, ptr %5, i32 0, i32 1
  %148 = load double, ptr %147, align 8, !tbaa !72
  %149 = fneg double %148
  %150 = call double @atan2(double noundef %146, double noundef %149) #8, !tbaa !54
  %151 = getelementptr inbounds nuw %struct.PJ_LP, ptr %4, i32 0, i32 0
  store double %150, ptr %151, align 8, !tbaa !76
  br label %162

152:                                              ; preds = %136
  %153 = load double, ptr %9, align 8, !tbaa !73
  %154 = fsub double %153, 0x3FF921FB54442D18
  %155 = getelementptr inbounds nuw %struct.PJ_LP, ptr %4, i32 0, i32 1
  store double %154, ptr %155, align 8, !tbaa !74
  %156 = getelementptr inbounds nuw %struct.PJ_XY, ptr %5, i32 0, i32 0
  %157 = load double, ptr %156, align 8, !tbaa !70
  %158 = getelementptr inbounds nuw %struct.PJ_XY, ptr %5, i32 0, i32 1
  %159 = load double, ptr %158, align 8, !tbaa !72
  %160 = call double @atan2(double noundef %157, double noundef %159) #8, !tbaa !54
  %161 = getelementptr inbounds nuw %struct.PJ_LP, ptr %4, i32 0, i32 0
  store double %160, ptr %161, align 8, !tbaa !76
  br label %162

162:                                              ; preds = %152, %141
  br label %163

163:                                              ; preds = %162, %133
  store i32 1, ptr %11, align 4
  br label %164

164:                                              ; preds = %163, %35, %28
  call void @llvm.lifetime.end.p0(i64 8, ptr %10) #8
  call void @llvm.lifetime.end.p0(i64 8, ptr %9) #8
  call void @llvm.lifetime.end.p0(i64 8, ptr %8) #8
  call void @llvm.lifetime.end.p0(i64 8, ptr %7) #8
  %165 = load { double, double }, ptr %4, align 8
  ret { double, double } %165
}