; Function Attrs: mustprogress uwtable
define internal { double, double } @_ZL14aeqd_s_inverse5PJ_XYP8PJconsts(double %0, double %1, ptr noundef %2) #0 {
  %4 = getelementptr inbounds nuw i8, ptr %2, i64 88
  %5 = load ptr, ptr %4, align 8, !tbaa !40
  %6 = tail call double @hypot(double noundef %0, double noundef %1) #8, !tbaa !50
  %7 = fcmp ogt double %6, 0x400921FB54442D18
  br i1 %7, label %8, label %13

8:                                                ; preds = %3
  %9 = fadd double %6, -1.000000e-10
  %10 = fcmp ogt double %9, 0x400921FB54442D18
  br i1 %10, label %11, label %18

11:                                               ; preds = %8
  %12 = tail call i32 @proj_errno_set(ptr noundef nonnull %2, i32 noundef 2050)
  br label %56

13:                                               ; preds = %3
  %14 = fcmp olt double %6, 1.000000e-10
  br i1 %14, label %15, label %18

15:                                               ; preds = %13
  %16 = getelementptr inbounds nuw i8, ptr %2, i64 448
  %17 = load double, ptr %16, align 8, !tbaa !43
  br label %56

18:                                               ; preds = %8, %13
  %.0 = phi double [ %6, %13 ], [ 0x400921FB54442D18, %8 ]
  %19 = getelementptr inbounds nuw i8, ptr %5, i64 64
  %20 = load i32, ptr %19, align 8, !tbaa !44
  switch i32 %20, label %53 [
    i32 3, label %21
    i32 2, label %21
    i32 0, label %49
  ]

21:                                               ; preds = %18, %18
  %22 = tail call double @sin(double noundef %.0) #8, !tbaa !50
  %23 = tail call double @cos(double noundef %.0) #8, !tbaa !50
  %24 = icmp eq i32 %20, 2
  %25 = load ptr, ptr %2, align 8, !tbaa !57
  br i1 %24, label %26, label %30

26:                                               ; preds = %21
  %27 = fmul double %1, %22
  %28 = fdiv double %27, %.0
  %29 = tail call noundef double @_Z5aasinP6pj_ctxd(ptr noundef %25, double noundef %28)
  br label %45

30:                                               ; preds = %21
  %31 = load double, ptr %5, align 8, !tbaa !49
  %32 = fmul double %1, %22
  %33 = getelementptr inbounds nuw i8, ptr %5, i64 8
  %34 = load double, ptr %33, align 8, !tbaa !51
  %35 = fmul double %32, %34
  %36 = fdiv double %35, %.0
  %37 = tail call double @llvm.fmuladd.f64(double %23, double %31, double %36)
  %38 = tail call noundef double @_Z5aasinP6pj_ctxd(ptr noundef %25, double noundef %37)
  %39 = load double, ptr %5, align 8, !tbaa !49
  %40 = tail call double @sin(double noundef %38) #8, !tbaa !50
  %41 = fneg double %39
  %42 = tail call double @llvm.fmuladd.f64(double %41, double %40, double %23)
  %43 = load double, ptr %33, align 8, !tbaa !51
  %44 = fmul double %22, %43
  br label %45

45:                                               ; preds = %30, %26
  %.pn = phi double [ %22, %26 ], [ %44, %30 ]
  %.pn45 = phi double [ %23, %26 ], [ %42, %30 ]
  %.sroa.6.1 = phi double [ %29, %26 ], [ %38, %30 ]
  %.sroa.9.0 = fmul double %.0, %.pn45
  %46 = fcmp oeq double %.sroa.9.0, 0.000000e+00
  br i1 %46, label %56, label %47

47:                                               ; preds = %45
  %.sroa.0.0 = fmul double %0, %.pn
  %48 = tail call double @atan2(double noundef %.sroa.0.0, double noundef %.sroa.9.0) #8, !tbaa !50
  br label %56

49:                                               ; preds = %18
  %50 = fsub double 0x3FF921FB54442D18, %.0
  %51 = fneg double %1
  %52 = tail call double @atan2(double noundef %0, double noundef %51) #8, !tbaa !50
  br label %56

53:                                               ; preds = %18
  %54 = fadd double %.0, 0xBFF921FB54442D18
  %55 = tail call double @atan2(double noundef %0, double noundef %1) #8, !tbaa !50
  br label %56

56:                                               ; preds = %53, %49, %45, %47, %15, %11
  %.sroa.6.0 = phi double [ 0.000000e+00, %11 ], [ %17, %15 ], [ %50, %49 ], [ %54, %53 ], [ %.sroa.6.1, %45 ], [ %.sroa.6.1, %47 ]
  %.sroa.042.0 = phi double [ 0.000000e+00, %11 ], [ 0.000000e+00, %15 ], [ %52, %49 ], [ %55, %53 ], [ 0.000000e+00, %45 ], [ %48, %47 ]
  %.fca.0.insert = insertvalue { double, double } poison, double %.sroa.042.0, 0
  %.fca.1.insert = insertvalue { double, double } %.fca.0.insert, double %.sroa.6.0, 1
  ret { double, double } %.fca.1.insert
}